; Function Attrs: mustprogress uwtable
define internal void @_ZN9grpc_core12_GLOBAL__N_115AresDNSResolver22LookupHostnameBlockingESt17basic_string_viewIcSt11char_traitsIcEES5_(ptr dead_on_unwind noalias writable sret(%"class.absl::lts_20240722::StatusOr.274") align 8 %0, ptr noundef nonnull readonly align 8 captures(none) dereferenceable(72) %1, i64 %2, ptr %3, i64 %4, ptr %5) unnamed_addr #5 align 2 {
  %7 = getelementptr inbounds nuw i8, ptr %1, i64 8
  %8 = load ptr, ptr %7, align 8, !tbaa !54
  %9 = load ptr, ptr %8, align 8, !tbaa !6
  %10 = getelementptr inbounds nuw i8, ptr %9, i64 24
  %11 = load ptr, ptr %10, align 8
  tail call void %11(ptr dead_on_unwind writable sret(%"class.absl::lts_20240722::StatusOr.274") align 8 %0, ptr noundef nonnull align 8 dereferenceable(8) %8, i64 %2, ptr %3, i64 %4, ptr %5)
  ret void
}